(i__main__
LogFile
p0
(dp1
S'_installed_files'
p2
(dp3
S'../../../Pr/PrKernel/x86_64-slc6-gcc48-opt/libPrKernelDict.so'
p4
S'../../../InstallArea/x86_64-slc6-gcc48-opt/lib/libPrKernelDict.so'
p5
sS'../../../Pr/PrKernel/x86_64-slc6-gcc48-opt/dict/PrKernel/PrKernelDict_rdict.pcm'
p6
S'../../../InstallArea/x86_64-slc6-gcc48-opt/lib/PrKernelDict_rdict.pcm'
p7
sS'../../../Pr/PrKernel/x86_64-slc6-gcc48-opt/libPrKernel.so'
p8
S'../../../InstallArea/x86_64-slc6-gcc48-opt/lib/libPrKernel.so'
p9
sS'../../../Pr/PrKernel/PrKernel'
p10
(dp11
S'../../../../Pr/PrKernel/PrKernel/PrHit.h'
p12
S'../../../InstallArea/x86_64-slc6-gcc48-opt/include/PrKernel/PrHit.h'
p13
sS'../../../../Pr/PrKernel/PrKernel/IPrTTCounter.h'
p14
S'../../../InstallArea/x86_64-slc6-gcc48-opt/include/PrKernel/IPrTTCounter.h'
p15
sS'../../../../Pr/PrKernel/PrKernel/PrUTHit.h'
p16
S'../../../InstallArea/x86_64-slc6-gcc48-opt/include/PrKernel/PrUTHit.h'
p17
sS'../../../../Pr/PrKernel/PrKernel/PrHitZone.h'
p18
S'../../../InstallArea/x86_64-slc6-gcc48-opt/include/PrKernel/PrHitZone.h'
p19
sS'../../../../Pr/PrKernel/PrKernel/IPrDebugUTTool.h'
p20
S'../../../InstallArea/x86_64-slc6-gcc48-opt/include/PrKernel/IPrDebugUTTool.h'
p21
sS'../../../../Pr/PrKernel/PrKernel/IPrUTCounter.h'
p22
S'../../../InstallArea/x86_64-slc6-gcc48-opt/include/PrKernel/IPrUTCounter.h'
p23
sS'../../../../Pr/PrKernel/PrKernel/IPrDebugTool.h'
p24
S'../../../InstallArea/x86_64-slc6-gcc48-opt/include/PrKernel/IPrDebugTool.h'
p25
sS'../../../../Pr/PrKernel/PrKernel/IPrCounter.h'
p26
S'../../../InstallArea/x86_64-slc6-gcc48-opt/include/PrKernel/IPrCounter.h'
p27
sS'../../../../Pr/PrKernel/PrKernel/PrHitManager.h'
p28
S'../../../InstallArea/x86_64-slc6-gcc48-opt/include/PrKernel/PrHitManager.h'
p29
sssb.