(i__main__
LogFile
p0
(dp1
S'_installed_files'
p2
(dp3
S'../../../Tr/TrackFitter/x86_64-slc6-gcc48-opt/genConf/TrackFitter'
p4
(dp5
S'../../../../Tr/TrackFitter/x86_64-slc6-gcc48-opt/genConf/TrackFitter/TrackFitterConf.py'
p6
S'../../../InstallArea/x86_64-slc6-gcc48-opt/python/TrackFitter/TrackFitterConf.py'
p7
ssS'../../Tr/TrackFitter/python'
p8
(dp9
S'../../../../Tr/TrackFitter/python/TrackFitter/__init__.py'
p10
S'../../../InstallArea/x86_64-slc6-gcc48-opt/python/TrackFitter/__init__.py'
p11
sS'../../../../Tr/TrackFitter/python/TrackFitter/ConfiguredFitters.py'
p12
S'../../../InstallArea/x86_64-slc6-gcc48-opt/python/TrackFitter/ConfiguredFitters.py'
p13
ssS'../../../Tr/TrackFitter/x86_64-slc6-gcc48-opt/libTrackFitter.so'
p14
S'../../../InstallArea/x86_64-slc6-gcc48-opt/lib/libTrackFitter.so'
p15
ssb.