(i__main__
LogFile
p0
(dp1
S'_installed_files'
p2
(dp3
S'../../../Det/FTDet/x86_64-slc6-gcc49-opt/genConf/FTDet'
p4
(dp5
S'../../../../Det/FTDet/x86_64-slc6-gcc49-opt/genConf/FTDet/FTDetConf.py'
p6
S'../../../InstallArea/x86_64-slc6-gcc49-opt/python/FTDet/FTDetConf.py'
p7
ssS'../../../Det/FTDet/FTDet'
p8
(dp9
S'../../../../Det/FTDet/FTDet/DeFTDetector.h'
p10
S'../../../InstallArea/x86_64-slc6-gcc49-opt/include/FTDet/DeFTDetector.h'
p11
sS'../../../../Det/FTDet/FTDet/DeFTModule.h'
p12
S'../../../InstallArea/x86_64-slc6-gcc49-opt/include/FTDet/DeFTModule.h'
p13
sS'../../../../Det/FTDet/FTDet/DeFTFibreMat.h'
p14
S'../../../InstallArea/x86_64-slc6-gcc49-opt/include/FTDet/DeFTFibreMat.h'
p15
sS'../../../../Det/FTDet/FTDet/DeFTLayer.h'
p16
S'../../../InstallArea/x86_64-slc6-gcc49-opt/include/FTDet/DeFTLayer.h'
p17
sS'../../../../Det/FTDet/FTDet/DeFTStation.h'
p18
S'../../../InstallArea/x86_64-slc6-gcc49-opt/include/FTDet/DeFTStation.h'
p19
sS'../../../../Det/FTDet/FTDet/DeFTBiLayer.h'
p20
S'../../../InstallArea/x86_64-slc6-gcc49-opt/include/FTDet/DeFTBiLayer.h'
p21
sS'../../../../Det/FTDet/FTDet/DeFTFibreModule.h'
p22
S'../../../InstallArea/x86_64-slc6-gcc49-opt/include/FTDet/DeFTFibreModule.h'
p23
ssS'../../../Det/FTDet/x86_64-slc6-gcc49-opt/dict/FTDet/FTDetDict_rdict.pcm'
p24
S'../../../InstallArea/x86_64-slc6-gcc49-opt/lib/FTDetDict_rdict.pcm'
p25
sS'../../../Det/FTDet/x86_64-slc6-gcc49-opt/libFTDet.so'
p26
S'../../../InstallArea/x86_64-slc6-gcc49-opt/lib/libFTDet.so'
p27
sS'../../../Det/FTDet/x86_64-slc6-gcc49-opt/libFTDetLib.so'
p28
S'../../../InstallArea/x86_64-slc6-gcc49-opt/lib/libFTDetLib.so'
p29
ssb.