(i__main__
LogFile
p0
(dp1
S'_installed_files'
p2
(dp3
S'../../../Det/FTDet/x86_64-slc6-gcc48-opt/genConf/FTDet'
p4
(dp5
S'../../../../Det/FTDet/x86_64-slc6-gcc48-opt/genConf/FTDet/FTDetConf.py'
p6
S'../../../InstallArea/x86_64-slc6-gcc48-opt/python/FTDet/FTDetConf.py'
p7
ssS'../../../Det/FTDet/x86_64-slc6-gcc48-opt/libFTDet.so'
p8
S'../../../InstallArea/x86_64-slc6-gcc48-opt/lib/libFTDet.so'
p9
sS'../../../Det/FTDet/x86_64-slc6-gcc48-opt/libFTDetLib.so'
p10
S'../../../InstallArea/x86_64-slc6-gcc48-opt/lib/libFTDetLib.so'
p11
sS'../../../Det/FTDet/FTDet'
p12
(dp13
S'../../../../Det/FTDet/FTDet/DeFTDetector.h'
p14
S'../../../InstallArea/x86_64-slc6-gcc48-opt/include/FTDet/DeFTDetector.h'
p15
sS'../../../../Det/FTDet/FTDet/DeFTModule.h'
p16
S'../../../InstallArea/x86_64-slc6-gcc48-opt/include/FTDet/DeFTModule.h'
p17
sS'../../../../Det/FTDet/FTDet/DeFTFibreMat.h'
p18
S'../../../InstallArea/x86_64-slc6-gcc48-opt/include/FTDet/DeFTFibreMat.h'
p19
sS'../../../../Det/FTDet/FTDet/DeFTLayer.h'
p20
S'../../../InstallArea/x86_64-slc6-gcc48-opt/include/FTDet/DeFTLayer.h'
p21
sS'../../../../Det/FTDet/FTDet/DeFTStation.h'
p22
S'../../../InstallArea/x86_64-slc6-gcc48-opt/include/FTDet/DeFTStation.h'
p23
sS'../../../../Det/FTDet/FTDet/DeFTBiLayer.h'
p24
S'../../../InstallArea/x86_64-slc6-gcc48-opt/include/FTDet/DeFTBiLayer.h'
p25
sS'../../../../Det/FTDet/FTDet/DeFTFibreModule.h'
p26
S'../../../InstallArea/x86_64-slc6-gcc48-opt/include/FTDet/DeFTFibreModule.h'
p27
ssS'../../../Det/FTDet/x86_64-slc6-gcc48-opt/dict/FTDet/FTDetDict_rdict.pcm'
p28
S'../../../InstallArea/x86_64-slc6-gcc48-opt/lib/FTDetDict_rdict.pcm'
p29
sS'../../../../../../../../../afs/cern.ch/sw/Gaudi/releases/GAUDI/GAUDI_v27r1/GaudiPolicy/cmt/fragments/__init__.py'
p30
S'../../../InstallArea/x86_64-slc6-gcc48-opt/python/FTDet/__init__.py'
p31
sS'../../../Det/FTDet/x86_64-slc6-gcc48-opt/libFTDetDict.so'
p32
S'../../../InstallArea/x86_64-slc6-gcc48-opt/lib/libFTDetDict.so'
p33
ssb.