(i__main__
LogFile
p0
(dp1
S'_installed_files'
p2
(dp3
S'../../../../../../../../../afs/cern.ch/sw/Gaudi/releases/GAUDI/GAUDI_v27r1/GaudiPolicy/cmt/fragments/__init__.py'
p4
S'../../../InstallArea/x86_64-slc6-gcc48-opt/python/PrAlgorithms/__init__.py'
p5
sS'../../../Pr/PrAlgorithms/x86_64-slc6-gcc48-opt/libPrAlgorithms.so'
p6
S'../../../InstallArea/x86_64-slc6-gcc48-opt/lib/libPrAlgorithms.so'
p7
sS'../../../Pr/PrAlgorithms/x86_64-slc6-gcc48-opt/genConf/PrAlgorithms'
p8
(dp9
S'../../../../Pr/PrAlgorithms/x86_64-slc6-gcc48-opt/genConf/PrAlgorithms/PrAlgorithmsConf.py'
p10
S'../../../InstallArea/x86_64-slc6-gcc48-opt/python/PrAlgorithms/PrAlgorithmsConf.py'
p11
sssb.