(i__main__
LogFile
p0
(dp1
S'_installed_files'
p2
(dp3
S'../../../Pr/PrMCTools/x86_64-slc6-gcc48-opt/genConf/PrMCTools'
p4
(dp5
S'../../../../Pr/PrMCTools/x86_64-slc6-gcc48-opt/genConf/PrMCTools/PrMCToolsConf.py'
p6
S'../../../InstallArea/x86_64-slc6-gcc48-opt/python/PrMCTools/PrMCToolsConf.py'
p7
ssS'../../../../../../../../../afs/cern.ch/sw/Gaudi/releases/GAUDI/GAUDI_v27r1/GaudiPolicy/cmt/fragments/__init__.py'
p8
S'../../../InstallArea/x86_64-slc6-gcc48-opt/python/PrMCTools/__init__.py'
p9
sS'../../../Pr/PrMCTools/x86_64-slc6-gcc48-opt/libPrMCTools.so'
p10
S'../../../InstallArea/x86_64-slc6-gcc48-opt/lib/libPrMCTools.so'
p11
ssb.